ccopy_reg
_reconstructor
p0
(c__main__
Book
p1
c__builtin__
object
p2
Ntp3
Rp4
(dp5
Vclassrooms
p6
(dp7
VGallo
p8
g0
(c__main__
Classroom
p9
g2
Ntp10
Rp11
(dp12
Vclass_name
p13
g8
sVcourse_code
p14
VTest
p15
sVcourse_name
p16
VTest
p17
sVperiod
p18
VTest
p19
sVteacher_name
p20
VTest
p21
sVstudents
p22
(dp23
VTest Test
p24
g0
(c__main__
Student
p25
g2
Ntp26
Rp27
(dp28
Vfirst_name
p29
VTest
p30
sVlast_name
p31
VTest
p32
sVgender
p33
VTest
p34
sVimage
p35
VTest
p36
sVstudent_number
p37
VTest
p38
sVgrade
p39
VTest
p40
sVemail
p41
VTest
p42
sVmarks
p43
VTest
p44
sVcomments
p45
VTest
p46
sVaverage
p47
VTest
p48
sbssVassignments
p49
Nsbssb.